target datalayout = "e-m:e-p270:32:32-p271:32:32-p272:64:64-i64:64-i128:128-f80:128-n8:16:32:64-S128"
target triple = "x86_64-pc-linux-gnu"

%struct.TupleTableSlotOps = type { i64, ptr, ptr, ptr, ptr, ptr, ptr, ptr, ptr, ptr, ptr, ptr, ptr }
%struct.TupleTableSlot = type { i32, i16, i16, ptr, ptr, ptr, ptr, ptr, %struct.ItemPointerData, i32 }
%struct.ItemPointerData = type { %struct.BlockIdData, i16 }
%struct.BlockIdData = type { i16, i16 }
%struct.HeapTupleTableSlot = type { %struct.TupleTableSlot, ptr, i32, %struct.HeapTupleData }
%struct.HeapTupleData = type { i32, %struct.ItemPointerData, i32, ptr }
%struct.BufferHeapTupleTableSlot = type { %struct.HeapTupleTableSlot, i32 }

@CurrentMemoryContext = external global ptr, align 8

; Function Attrs: inlinehint nounwind uwtable
define internal zeroext i1 @BufferIsValid(i32 noundef %0) #4 {
  %2 = alloca i32, align 4
  store i32 %0, ptr %2, align 4
  %3 = load i32, ptr %2, align 4
  %4 = icmp ne i32 %3, 0
  ret i1 %4
}

; Function Attrs: inlinehint nounwind uwtable
define internal void @tts_buffer_heap_store_tuple(ptr noundef %0, ptr noundef %1, i32 noundef %2, i1 noundef zeroext %3) #4 {
  %5 = alloca ptr, align 8
  %6 = alloca ptr, align 8
  %7 = alloca i32, align 4
  %8 = alloca i8, align 1
  %9 = alloca ptr, align 8
  store ptr %0, ptr %5, align 8
  store ptr %1, ptr %6, align 8
  store i32 %2, ptr %7, align 4
  %10 = zext i1 %3 to i8
  store i8 %10, ptr %8, align 1
  call void @llvm.lifetime.start.p0(i64 8, ptr %9) #10
  %11 = load ptr, ptr %5, align 8
  store ptr %11, ptr %9, align 8
  %12 = load ptr, ptr %5, align 8
  %13 = getelementptr inbounds nuw %struct.TupleTableSlot, ptr %12, i32 0, i32 1
  %14 = load i16, ptr %13, align 4
  %15 = zext i16 %14 to i32
  %16 = and i32 %15, 4
  %17 = icmp ne i32 %16, 0
  br i1 %17, label %18, label %29

18:                                               ; preds = %4
  %19 = load ptr, ptr %9, align 8
  %20 = getelementptr inbounds nuw %struct.BufferHeapTupleTableSlot, ptr %19, i32 0, i32 0
  %21 = getelementptr inbounds nuw %struct.HeapTupleTableSlot, ptr %20, i32 0, i32 1
  %22 = load ptr, ptr %21, align 8
  call void @heap_freetuple(ptr noundef %22)
  %23 = load ptr, ptr %5, align 8
  %24 = getelementptr inbounds nuw %struct.TupleTableSlot, ptr %23, i32 0, i32 1
  %25 = load i16, ptr %24, align 4
  %26 = zext i16 %25 to i32
  %27 = and i32 %26, -5
  %28 = trunc i32 %27 to i16
  store i16 %28, ptr %24, align 4
  br label %29

29:                                               ; preds = %18, %4
  %30 = load ptr, ptr %5, align 8
  %31 = getelementptr inbounds nuw %struct.TupleTableSlot, ptr %30, i32 0, i32 1
  %32 = load i16, ptr %31, align 4
  %33 = zext i16 %32 to i32
  %34 = and i32 %33, -3
  %35 = trunc i32 %34 to i16
  store i16 %35, ptr %31, align 4
  %36 = load ptr, ptr %5, align 8
  %37 = getelementptr inbounds nuw %struct.TupleTableSlot, ptr %36, i32 0, i32 2
  store i16 0, ptr %37, align 2
  %38 = load ptr, ptr %6, align 8
  %39 = load ptr, ptr %9, align 8
  %40 = getelementptr inbounds nuw %struct.BufferHeapTupleTableSlot, ptr %39, i32 0, i32 0
  %41 = getelementptr inbounds nuw %struct.HeapTupleTableSlot, ptr %40, i32 0, i32 1
  store ptr %38, ptr %41, align 8
  %42 = load ptr, ptr %9, align 8
  %43 = getelementptr inbounds nuw %struct.BufferHeapTupleTableSlot, ptr %42, i32 0, i32 0
  %44 = getelementptr inbounds nuw %struct.HeapTupleTableSlot, ptr %43, i32 0, i32 2
  store i32 0, ptr %44, align 8
  %45 = load ptr, ptr %5, align 8
  %46 = getelementptr inbounds nuw %struct.TupleTableSlot, ptr %45, i32 0, i32 8
  %47 = load ptr, ptr %6, align 8
  %48 = getelementptr inbounds nuw %struct.HeapTupleData, ptr %47, i32 0, i32 1
  call void @llvm.memcpy.p0.p0.i64(ptr align 8 %46, ptr align 4 %48, i64 6, i1 false)
  %49 = load ptr, ptr %9, align 8
  %50 = getelementptr inbounds nuw %struct.BufferHeapTupleTableSlot, ptr %49, i32 0, i32 1
  %51 = load i32, ptr %50, align 8
  %52 = load i32, ptr %7, align 4
  %53 = icmp ne i32 %51, %52
  br i1 %53, label %54, label %75

54:                                               ; preds = %29
  %55 = load ptr, ptr %9, align 8
  %56 = getelementptr inbounds nuw %struct.BufferHeapTupleTableSlot, ptr %55, i32 0, i32 1
  %57 = load i32, ptr %56, align 8
  %58 = call zeroext i1 @BufferIsValid(i32 noundef %57)
  br i1 %58, label %59, label %63

59:                                               ; preds = %54
  %60 = load ptr, ptr %9, align 8
  %61 = getelementptr inbounds nuw %struct.BufferHeapTupleTableSlot, ptr %60, i32 0, i32 1
  %62 = load i32, ptr %61, align 8
  call void @ReleaseBuffer(i32 noundef %62)
  br label %63

63:                                               ; preds = %59, %54
  %64 = load i32, ptr %7, align 4
  %65 = load ptr, ptr %9, align 8
  %66 = getelementptr inbounds nuw %struct.BufferHeapTupleTableSlot, ptr %65, i32 0, i32 1
  store i32 %64, ptr %66, align 8
  %67 = load i8, ptr %8, align 1, !range !4, !noundef !5
  %68 = trunc i8 %67 to i1
  br i1 %68, label %74, label %69

69:                                               ; preds = %63
  %70 = load i32, ptr %7, align 4
  %71 = call zeroext i1 @BufferIsValid(i32 noundef %70)
  br i1 %71, label %72, label %74

72:                                               ; preds = %69
  %73 = load i32, ptr %7, align 4
  call void @IncrBufferRefCount(i32 noundef %73)
  br label %74

74:                                               ; preds = %72, %69, %63
  br label %84

75:                                               ; preds = %29
  %76 = load i8, ptr %8, align 1, !range !4, !noundef !5
  %77 = trunc i8 %76 to i1
  br i1 %77, label %78, label %83

78:                                               ; preds = %75
  %79 = load i32, ptr %7, align 4
  %80 = call zeroext i1 @BufferIsValid(i32 noundef %79)
  br i1 %80, label %81, label %83

81:                                               ; preds = %78
  %82 = load i32, ptr %7, align 4
  call void @ReleaseBuffer(i32 noundef %82)
  br label %83

83:                                               ; preds = %81, %78, %75
  br label %84

84:                                               ; preds = %83, %74
  call void @llvm.lifetime.end.p0(i64 8, ptr %9) #10
  ret void
}

; Function Attrs: inlinehint nounwind uwtable
define internal ptr @ExecCopySlotHeapTuple(ptr noundef %0) #4 {
  %2 = alloca ptr, align 8
  store ptr %0, ptr %2, align 8
  %3 = load ptr, ptr %2, align 8
  %4 = getelementptr inbounds nuw %struct.TupleTableSlot, ptr %3, i32 0, i32 3
  %5 = load ptr, ptr %4, align 8
  %6 = getelementptr inbounds nuw %struct.TupleTableSlotOps, ptr %5, i32 0, i32 11
  %7 = load ptr, ptr %6, align 8
  %8 = load ptr, ptr %2, align 8
  %9 = call ptr %7(ptr noundef %8)
  ret ptr %9
}

; Function Attrs: inlinehint nounwind uwtable
define internal ptr @MemoryContextSwitchTo(ptr noundef %0) #4 {
  %2 = alloca ptr, align 8
  %3 = alloca ptr, align 8
  store ptr %0, ptr %2, align 8
  call void @llvm.lifetime.start.p0(i64 8, ptr %3) #10
  %4 = load ptr, ptr @CurrentMemoryContext, align 8
  store ptr %4, ptr %3, align 8
  %5 = load ptr, ptr %2, align 8
  store ptr %5, ptr @CurrentMemoryContext, align 8
  %6 = load ptr, ptr %3, align 8
  call void @llvm.lifetime.end.p0(i64 8, ptr %3) #10
  ret ptr %6
}

; Function Attrs: inlinehint nounwind uwtable
define internal ptr @ExecClearTuple(ptr noundef %0) #4 {
  %2 = alloca ptr, align 8
  store ptr %0, ptr %2, align 8
  %3 = load ptr, ptr %2, align 8
  %4 = getelementptr inbounds nuw %struct.TupleTableSlot, ptr %3, i32 0, i32 3
  %5 = load ptr, ptr %4, align 8
  %6 = getelementptr inbounds nuw %struct.TupleTableSlotOps, ptr %5, i32 0, i32 3
  %7 = load ptr, ptr %6, align 8
  %8 = load ptr, ptr %2, align 8
  call void %7(ptr noundef %8)
  %9 = load ptr, ptr %2, align 8
  ret ptr %9
}

; Function Attrs: nounwind uwtable
define internal void @tts_buffer_heap_copyslot(ptr noundef %0, ptr noundef %1) #0 {
  %3 = alloca ptr, align 8
  %4 = alloca ptr, align 8
  %5 = alloca ptr, align 8
  %6 = alloca ptr, align 8
  %7 = alloca ptr, align 8
  store ptr %0, ptr %3, align 8
  store ptr %1, ptr %4, align 8
  call void @llvm.lifetime.start.p0(i64 8, ptr %5) #10
  %8 = load ptr, ptr %4, align 8
  store ptr %8, ptr %5, align 8
  call void @llvm.lifetime.start.p0(i64 8, ptr %6) #10
  %9 = load ptr, ptr %3, align 8
  store ptr %9, ptr %6, align 8
  %10 = load ptr, ptr %3, align 8
  %11 = getelementptr inbounds nuw %struct.TupleTableSlot, ptr %10, i32 0, i32 3
  %12 = load ptr, ptr %11, align 8
  %13 = load ptr, ptr %4, align 8
  %14 = getelementptr inbounds nuw %struct.TupleTableSlot, ptr %13, i32 0, i32 3
  %15 = load ptr, ptr %14, align 8
  %16 = icmp ne ptr %12, %15
  br i1 %16, label %30, label %17

17:                                               ; preds = %2
  %18 = load ptr, ptr %4, align 8
  %19 = getelementptr inbounds nuw %struct.TupleTableSlot, ptr %18, i32 0, i32 1
  %20 = load i16, ptr %19, align 4
  %21 = zext i16 %20 to i32
  %22 = and i32 %21, 4
  %23 = icmp ne i32 %22, 0
  br i1 %23, label %30, label %24

24:                                               ; preds = %17
  %25 = load ptr, ptr %5, align 8
  %26 = getelementptr inbounds nuw %struct.BufferHeapTupleTableSlot, ptr %25, i32 0, i32 0
  %27 = getelementptr inbounds nuw %struct.HeapTupleTableSlot, ptr %26, i32 0, i32 1
  %28 = load ptr, ptr %27, align 8
  %29 = icmp ne ptr %28, null
  br i1 %29, label %56, label %30

30:                                               ; preds = %24, %17, %2
  call void @llvm.lifetime.start.p0(i64 8, ptr %7) #10
  %31 = load ptr, ptr %3, align 8
  %32 = call ptr @ExecClearTuple(ptr noundef %31)
  %33 = load ptr, ptr %3, align 8
  %34 = getelementptr inbounds nuw %struct.TupleTableSlot, ptr %33, i32 0, i32 1
  %35 = load i16, ptr %34, align 4
  %36 = zext i16 %35 to i32
  %37 = and i32 %36, -3
  %38 = trunc i32 %37 to i16
  store i16 %38, ptr %34, align 4
  %39 = load ptr, ptr %3, align 8
  %40 = getelementptr inbounds nuw %struct.TupleTableSlot, ptr %39, i32 0, i32 7
  %41 = load ptr, ptr %40, align 8
  %42 = call ptr @MemoryContextSwitchTo(ptr noundef %41)
  store ptr %42, ptr %7, align 8
  %43 = load ptr, ptr %4, align 8
  %44 = call ptr @ExecCopySlotHeapTuple(ptr noundef %43)
  %45 = load ptr, ptr %6, align 8
  %46 = getelementptr inbounds nuw %struct.BufferHeapTupleTableSlot, ptr %45, i32 0, i32 0
  %47 = getelementptr inbounds nuw %struct.HeapTupleTableSlot, ptr %46, i32 0, i32 1
  store ptr %44, ptr %47, align 8
  %48 = load ptr, ptr %3, align 8
  %49 = getelementptr inbounds nuw %struct.TupleTableSlot, ptr %48, i32 0, i32 1
  %50 = load i16, ptr %49, align 4
  %51 = zext i16 %50 to i32
  %52 = or i32 %51, 4
  %53 = trunc i32 %52 to i16
  store i16 %53, ptr %49, align 4
  %54 = load ptr, ptr %7, align 8
  %55 = call ptr @MemoryContextSwitchTo(ptr noundef %54)
  call void @llvm.lifetime.end.p0(i64 8, ptr %7) #10
  br label %78

56:                                               ; preds = %24
  %57 = load ptr, ptr %3, align 8
  %58 = load ptr, ptr %5, align 8
  %59 = getelementptr inbounds nuw %struct.BufferHeapTupleTableSlot, ptr %58, i32 0, i32 0
  %60 = getelementptr inbounds nuw %struct.HeapTupleTableSlot, ptr %59, i32 0, i32 1
  %61 = load ptr, ptr %60, align 8
  %62 = load ptr, ptr %5, align 8
  %63 = getelementptr inbounds nuw %struct.BufferHeapTupleTableSlot, ptr %62, i32 0, i32 1
  %64 = load i32, ptr %63, align 8
  call void @tts_buffer_heap_store_tuple(ptr noundef %57, ptr noundef %61, i32 noundef %64, i1 noundef zeroext false)
  %65 = load ptr, ptr %6, align 8
  %66 = getelementptr inbounds nuw %struct.BufferHeapTupleTableSlot, ptr %65, i32 0, i32 0
  %67 = getelementptr inbounds nuw %struct.HeapTupleTableSlot, ptr %66, i32 0, i32 3
  %68 = load ptr, ptr %6, align 8
  %69 = getelementptr inbounds nuw %struct.BufferHeapTupleTableSlot, ptr %68, i32 0, i32 0
  %70 = getelementptr inbounds nuw %struct.HeapTupleTableSlot, ptr %69, i32 0, i32 1
  %71 = load ptr, ptr %70, align 8
  call void @llvm.memcpy.p0.p0.i64(ptr align 8 %67, ptr align 8 %71, i64 24, i1 false)
  %72 = load ptr, ptr %6, align 8
  %73 = getelementptr inbounds nuw %struct.BufferHeapTupleTableSlot, ptr %72, i32 0, i32 0
  %74 = getelementptr inbounds nuw %struct.HeapTupleTableSlot, ptr %73, i32 0, i32 3
  %75 = load ptr, ptr %6, align 8
  %76 = getelementptr inbounds nuw %struct.BufferHeapTupleTableSlot, ptr %75, i32 0, i32 0
  %77 = getelementptr inbounds nuw %struct.HeapTupleTableSlot, ptr %76, i32 0, i32 1
  store ptr %74, ptr %77, align 8
  br label %78

78:                                               ; preds = %56, %30
  call void @llvm.lifetime.end.p0(i64 8, ptr %6) #10
  call void @llvm.lifetime.end.p0(i64 8, ptr %5) #10
  ret void
}