; Function Attrs: nounwind uwtable
define internal void @tts_buffer_heap_copyslot(ptr noundef %0, ptr noundef %1) #1 {
  %3 = getelementptr inbounds nuw i8, ptr %0, i64 8
  %4 = load ptr, ptr %3, align 8
  %5 = getelementptr inbounds nuw i8, ptr %1, i64 8
  %6 = load ptr, ptr %5, align 8
  %.not = icmp eq ptr %4, %6
  br i1 %.not, label %7, label %14

7:                                                ; preds = %2
  %8 = getelementptr inbounds nuw i8, ptr %1, i64 4
  %9 = load i16, ptr %8, align 4
  %10 = and i16 %9, 4
  %.not20 = icmp eq i16 %10, 0
  br i1 %.not20, label %11, label %14

11:                                               ; preds = %7
  %12 = getelementptr inbounds nuw i8, ptr %1, i64 64
  %13 = load ptr, ptr %12, align 8
  %.not21 = icmp eq ptr %13, null
  br i1 %.not21, label %14, label %30

14:                                               ; preds = %11, %7, %2
  %15 = getelementptr inbounds nuw i8, ptr %4, i64 24
  %16 = load ptr, ptr %15, align 8
  tail call void %16(ptr noundef nonnull %0) #14
  %17 = getelementptr inbounds nuw i8, ptr %0, i64 4
  %18 = load i16, ptr %17, align 4
  %19 = and i16 %18, -3
  store i16 %19, ptr %17, align 4
  %20 = getelementptr inbounds nuw i8, ptr %0, i64 40
  %21 = load ptr, ptr %20, align 8
  %22 = load ptr, ptr @CurrentMemoryContext, align 8
  store ptr %21, ptr @CurrentMemoryContext, align 8
  %23 = load ptr, ptr %5, align 8
  %24 = getelementptr inbounds nuw i8, ptr %23, i64 88
  %25 = load ptr, ptr %24, align 8
  %26 = tail call ptr %25(ptr noundef nonnull %1) #14
  %27 = getelementptr inbounds nuw i8, ptr %0, i64 64
  store ptr %26, ptr %27, align 8
  %28 = load i16, ptr %17, align 4
  %29 = or i16 %28, 4
  store i16 %29, ptr %17, align 4
  store ptr %22, ptr @CurrentMemoryContext, align 8
  br label %58

30:                                               ; preds = %11
  %31 = getelementptr inbounds nuw i8, ptr %1, i64 104
  %32 = load i32, ptr %31, align 8
  %33 = getelementptr inbounds nuw i8, ptr %0, i64 4
  %34 = load i16, ptr %33, align 4
  %35 = and i16 %34, 4
  %.not.i = icmp eq i16 %35, 0
  br i1 %.not.i, label %41, label %36

36:                                               ; preds = %30
  %37 = getelementptr inbounds nuw i8, ptr %0, i64 64
  %38 = load ptr, ptr %37, align 8
  tail call void @heap_freetuple(ptr noundef %38) #14
  %39 = load i16, ptr %33, align 4
  %40 = and i16 %39, -5
  br label %41

41:                                               ; preds = %36, %30
  %42 = phi i16 [ %40, %36 ], [ %34, %30 ]
  %43 = and i16 %42, -3
  store i16 %43, ptr %33, align 4
  %44 = getelementptr inbounds nuw i8, ptr %0, i64 6
  store i16 0, ptr %44, align 2
  %45 = getelementptr inbounds nuw i8, ptr %0, i64 64
  store ptr %13, ptr %45, align 8
  %46 = getelementptr inbounds nuw i8, ptr %0, i64 72
  store i32 0, ptr %46, align 8
  %47 = getelementptr inbounds nuw i8, ptr %0, i64 48
  %48 = getelementptr inbounds nuw i8, ptr %13, i64 4
  tail call void @llvm.memcpy.p0.p0.i64(ptr noundef nonnull align 8 dereferenceable(6) %47, ptr noundef nonnull align 4 dereferenceable(6) %48, i64 6, i1 false)
  %49 = getelementptr inbounds nuw i8, ptr %0, i64 104
  %50 = load i32, ptr %49, align 8
  %.not23.i = icmp eq i32 %50, %32
  br i1 %.not23.i, label %tts_buffer_heap_store_tuple.exit, label %51

51:                                               ; preds = %41
  %.not26.i = icmp eq i32 %50, 0
  br i1 %.not26.i, label %53, label %52

52:                                               ; preds = %51
  tail call void @ReleaseBuffer(i32 noundef %50) #14
  br label %53

53:                                               ; preds = %52, %51
  store i32 %32, ptr %49, align 8
  %54 = icmp eq i32 %32, 0
  br i1 %54, label %tts_buffer_heap_store_tuple.exit, label %55

55:                                               ; preds = %53
  tail call void @IncrBufferRefCount(i32 noundef %32) #14
  br label %tts_buffer_heap_store_tuple.exit

tts_buffer_heap_store_tuple.exit:                 ; preds = %41, %53, %55
  %56 = getelementptr inbounds nuw i8, ptr %0, i64 80
  %57 = load ptr, ptr %45, align 8
  tail call void @llvm.memcpy.p0.p0.i64(ptr noundef nonnull align 8 dereferenceable(24) %56, ptr noundef nonnull align 8 dereferenceable(24) %57, i64 24, i1 false)
  store ptr %56, ptr %45, align 8
  br label %58

58:                                               ; preds = %tts_buffer_heap_store_tuple.exit, %14
  ret void
}